target datalayout = "e-m:e-p270:32:32-p271:32:32-p272:64:64-i64:64-i128:128-f80:128-n8:16:32:64-S128"
target triple = "x86_64-pc-linux-gnu"

%struct.TupleTableSlotOps = type { i64, ptr, ptr, ptr, ptr, ptr, ptr, ptr, ptr, ptr, ptr, ptr, ptr }
%struct.CteScanState = type { %struct.ScanState, i32, i32, ptr, ptr, ptr, i8 }
%struct.ScanState = type { %struct.PlanState, ptr, ptr, ptr }
%struct.PlanState = type { i32, ptr, ptr, ptr, ptr, ptr, ptr, ptr, ptr, ptr, ptr, ptr, ptr, ptr, ptr, ptr, ptr, ptr, i8, ptr, ptr, ptr, ptr, ptr, i8, i8, i8, i8, i8, i8, i8, i8 }
%struct.EState = type { i32, i32, ptr, ptr, ptr, i32, ptr, ptr, ptr, ptr, ptr, ptr, ptr, ptr, ptr, ptr, i32, ptr, ptr, ptr, ptr, ptr, ptr, ptr, ptr, ptr, ptr, i64, i64, i32, i32, i8, ptr, ptr, ptr, ptr, ptr, i8, i32, i32, ptr, i32, ptr, ptr, ptr, ptr }
%struct.TupleTableSlot = type { i32, i16, i16, ptr, ptr, ptr, ptr, ptr, %struct.ItemPointerData, i32 }
%struct.ItemPointerData = type { %struct.BlockIdData, i16 }
%struct.BlockIdData = type { i16, i16 }

; Function Attrs: inlinehint nounwind uwtable
define internal ptr @ExecClearTuple(ptr noundef %0) #2 {
  %2 = alloca ptr, align 8
  store ptr %0, ptr %2, align 8
  %3 = load ptr, ptr %2, align 8
  %4 = getelementptr inbounds nuw %struct.TupleTableSlot, ptr %3, i32 0, i32 3
  %5 = load ptr, ptr %4, align 8
  %6 = getelementptr inbounds nuw %struct.TupleTableSlotOps, ptr %5, i32 0, i32 3
  %7 = load ptr, ptr %6, align 8
  %8 = load ptr, ptr %2, align 8
  call void %7(ptr noundef %8)
  %9 = load ptr, ptr %2, align 8
  ret ptr %9
}

; Function Attrs: inlinehint nounwind uwtable
define internal ptr @ExecCopySlot(ptr noundef %0, ptr noundef %1) #2 {
  %3 = alloca ptr, align 8
  %4 = alloca ptr, align 8
  store ptr %0, ptr %3, align 8
  store ptr %1, ptr %4, align 8
  %5 = load ptr, ptr %3, align 8
  %6 = getelementptr inbounds nuw %struct.TupleTableSlot, ptr %5, i32 0, i32 3
  %7 = load ptr, ptr %6, align 8
  %8 = getelementptr inbounds nuw %struct.TupleTableSlotOps, ptr %7, i32 0, i32 8
  %9 = load ptr, ptr %8, align 8
  %10 = load ptr, ptr %3, align 8
  %11 = load ptr, ptr %4, align 8
  call void %9(ptr noundef %10, ptr noundef %11)
  %12 = load ptr, ptr %3, align 8
  ret ptr %12
}

; Function Attrs: inlinehint nounwind uwtable
define internal ptr @ExecProcNode(ptr noundef %0) #2 {
  %2 = alloca ptr, align 8
  store ptr %0, ptr %2, align 8
  %3 = load ptr, ptr %2, align 8
  %4 = getelementptr inbounds nuw %struct.PlanState, ptr %3, i32 0, i32 13
  %5 = load ptr, ptr %4, align 8
  %6 = icmp ne ptr %5, null
  br i1 %6, label %7, label %9

7:                                                ; preds = %1
  %8 = load ptr, ptr %2, align 8
  call void @ExecReScan(ptr noundef %8)
  br label %9

9:                                                ; preds = %7, %1
  %10 = load ptr, ptr %2, align 8
  %11 = getelementptr inbounds nuw %struct.PlanState, ptr %10, i32 0, i32 3
  %12 = load ptr, ptr %11, align 8
  %13 = load ptr, ptr %2, align 8
  %14 = call ptr %12(ptr noundef %13)
  ret ptr %14
}

; Function Attrs: nounwind uwtable
define internal ptr @CteScanNext(ptr noundef %0) #0 {
  %2 = alloca ptr, align 8
  %3 = alloca ptr, align 8
  %4 = alloca ptr, align 8
  %5 = alloca i32, align 4
  %6 = alloca i8, align 1
  %7 = alloca ptr, align 8
  %8 = alloca i8, align 1
  %9 = alloca ptr, align 8
  %10 = alloca i32, align 4
  %11 = alloca ptr, align 8
  store ptr %0, ptr %3, align 8
  call void @llvm.lifetime.start.p0(i64 8, ptr %4) #4
  call void @llvm.lifetime.start.p0(i64 4, ptr %5) #4
  call void @llvm.lifetime.start.p0(i64 1, ptr %6) #4
  call void @llvm.lifetime.start.p0(i64 8, ptr %7) #4
  call void @llvm.lifetime.start.p0(i64 1, ptr %8) #4
  call void @llvm.lifetime.start.p0(i64 8, ptr %9) #4
  %12 = load ptr, ptr %3, align 8
  %13 = getelementptr inbounds nuw %struct.CteScanState, ptr %12, i32 0, i32 0
  %14 = getelementptr inbounds nuw %struct.ScanState, ptr %13, i32 0, i32 0
  %15 = getelementptr inbounds nuw %struct.PlanState, ptr %14, i32 0, i32 2
  %16 = load ptr, ptr %15, align 8
  store ptr %16, ptr %4, align 8
  %17 = load ptr, ptr %4, align 8
  %18 = getelementptr inbounds nuw %struct.EState, ptr %17, i32 0, i32 1
  %19 = load i32, ptr %18, align 4
  store i32 %19, ptr %5, align 4
  %20 = load i32, ptr %5, align 4
  %21 = icmp eq i32 %20, 1
  %22 = zext i1 %21 to i8
  store i8 %22, ptr %6, align 1
  %23 = load ptr, ptr %3, align 8
  %24 = getelementptr inbounds nuw %struct.CteScanState, ptr %23, i32 0, i32 4
  %25 = load ptr, ptr %24, align 8
  %26 = getelementptr inbounds nuw %struct.CteScanState, ptr %25, i32 0, i32 5
  %27 = load ptr, ptr %26, align 8
  store ptr %27, ptr %7, align 8
  %28 = load ptr, ptr %7, align 8
  %29 = load ptr, ptr %3, align 8
  %30 = getelementptr inbounds nuw %struct.CteScanState, ptr %29, i32 0, i32 2
  %31 = load i32, ptr %30, align 4
  call void @tuplestore_select_read_pointer(ptr noundef %28, i32 noundef %31)
  %32 = load ptr, ptr %3, align 8
  %33 = getelementptr inbounds nuw %struct.CteScanState, ptr %32, i32 0, i32 0
  %34 = getelementptr inbounds nuw %struct.ScanState, ptr %33, i32 0, i32 3
  %35 = load ptr, ptr %34, align 8
  store ptr %35, ptr %9, align 8
  %36 = load ptr, ptr %7, align 8
  %37 = call zeroext i1 @tuplestore_ateof(ptr noundef %36)
  %38 = zext i1 %37 to i8
  store i8 %38, ptr %8, align 1
  %39 = load i8, ptr %6, align 1, !range !4, !noundef !5
  %40 = trunc i8 %39 to i1
  br i1 %40, label %59, label %41

41:                                               ; preds = %1
  %42 = load i8, ptr %8, align 1, !range !4, !noundef !5
  %43 = trunc i8 %42 to i1
  br i1 %43, label %44, label %59

44:                                               ; preds = %41
  %45 = load ptr, ptr %3, align 8
  %46 = getelementptr inbounds nuw %struct.CteScanState, ptr %45, i32 0, i32 4
  %47 = load ptr, ptr %46, align 8
  %48 = getelementptr inbounds nuw %struct.CteScanState, ptr %47, i32 0, i32 6
  %49 = load i8, ptr %48, align 8, !range !4, !noundef !5
  %50 = trunc i8 %49 to i1
  br i1 %50, label %58, label %51

51:                                               ; preds = %44
  %52 = load ptr, ptr %7, align 8
  %53 = load i8, ptr %6, align 1, !range !4, !noundef !5
  %54 = trunc i8 %53 to i1
  %55 = call zeroext i1 @tuplestore_advance(ptr noundef %52, i1 noundef zeroext %54)
  br i1 %55, label %57, label %56

56:                                               ; preds = %51
  store ptr null, ptr %2, align 8
  store i32 1, ptr %10, align 4
  br label %118

57:                                               ; preds = %51
  br label %58

58:                                               ; preds = %57, %44
  store i8 0, ptr %8, align 1
  br label %59

59:                                               ; preds = %58, %41, %1
  %60 = load i8, ptr %8, align 1, !range !4, !noundef !5
  %61 = trunc i8 %60 to i1
  br i1 %61, label %75, label %62

62:                                               ; preds = %59
  %63 = load ptr, ptr %7, align 8
  %64 = load i8, ptr %6, align 1, !range !4, !noundef !5
  %65 = trunc i8 %64 to i1
  %66 = load ptr, ptr %9, align 8
  %67 = call zeroext i1 @tuplestore_gettupleslot(ptr noundef %63, i1 noundef zeroext %65, i1 noundef zeroext true, ptr noundef %66)
  br i1 %67, label %68, label %70

68:                                               ; preds = %62
  %69 = load ptr, ptr %9, align 8
  store ptr %69, ptr %2, align 8
  store i32 1, ptr %10, align 4
  br label %118

70:                                               ; preds = %62
  %71 = load i8, ptr %6, align 1, !range !4, !noundef !5
  %72 = trunc i8 %71 to i1
  br i1 %72, label %73, label %74

73:                                               ; preds = %70
  store i8 1, ptr %8, align 1
  br label %74

74:                                               ; preds = %73, %70
  br label %75

75:                                               ; preds = %74, %59
  %76 = load i8, ptr %8, align 1, !range !4, !noundef !5
  %77 = trunc i8 %76 to i1
  br i1 %77, label %78, label %115

78:                                               ; preds = %75
  %79 = load ptr, ptr %3, align 8
  %80 = getelementptr inbounds nuw %struct.CteScanState, ptr %79, i32 0, i32 4
  %81 = load ptr, ptr %80, align 8
  %82 = getelementptr inbounds nuw %struct.CteScanState, ptr %81, i32 0, i32 6
  %83 = load i8, ptr %82, align 8, !range !4, !noundef !5
  %84 = trunc i8 %83 to i1
  br i1 %84, label %115, label %85

85:                                               ; preds = %78
  call void @llvm.lifetime.start.p0(i64 8, ptr %11) #4
  %86 = load ptr, ptr %3, align 8
  %87 = getelementptr inbounds nuw %struct.CteScanState, ptr %86, i32 0, i32 3
  %88 = load ptr, ptr %87, align 8
  %89 = call ptr @ExecProcNode(ptr noundef %88)
  store ptr %89, ptr %11, align 8
  %90 = load ptr, ptr %11, align 8
  %91 = icmp eq ptr %90, null
  br i1 %91, label %99, label %92

92:                                               ; preds = %85
  %93 = load ptr, ptr %11, align 8
  %94 = getelementptr inbounds nuw %struct.TupleTableSlot, ptr %93, i32 0, i32 1
  %95 = load i16, ptr %94, align 4
  %96 = zext i16 %95 to i32
  %97 = and i32 %96, 2
  %98 = icmp ne i32 %97, 0
  br i1 %98, label %99, label %104

99:                                               ; preds = %92, %85
  %100 = load ptr, ptr %3, align 8
  %101 = getelementptr inbounds nuw %struct.CteScanState, ptr %100, i32 0, i32 4
  %102 = load ptr, ptr %101, align 8
  %103 = getelementptr inbounds nuw %struct.CteScanState, ptr %102, i32 0, i32 6
  store i8 1, ptr %103, align 8
  store ptr null, ptr %2, align 8
  store i32 1, ptr %10, align 4
  br label %114

104:                                              ; preds = %92
  %105 = load ptr, ptr %7, align 8
  %106 = load ptr, ptr %3, align 8
  %107 = getelementptr inbounds nuw %struct.CteScanState, ptr %106, i32 0, i32 2
  %108 = load i32, ptr %107, align 4
  call void @tuplestore_select_read_pointer(ptr noundef %105, i32 noundef %108)
  %109 = load ptr, ptr %7, align 8
  %110 = load ptr, ptr %11, align 8
  call void @tuplestore_puttupleslot(ptr noundef %109, ptr noundef %110)
  %111 = load ptr, ptr %9, align 8
  %112 = load ptr, ptr %11, align 8
  %113 = call ptr @ExecCopySlot(ptr noundef %111, ptr noundef %112)
  store ptr %113, ptr %2, align 8
  store i32 1, ptr %10, align 4
  br label %114

114:                                              ; preds = %104, %99
  call void @llvm.lifetime.end.p0(i64 8, ptr %11) #4
  br label %118

115:                                              ; preds = %78, %75
  %116 = load ptr, ptr %9, align 8
  %117 = call ptr @ExecClearTuple(ptr noundef %116)
  store ptr %117, ptr %2, align 8
  store i32 1, ptr %10, align 4
  br label %118

118:                                              ; preds = %115, %114, %68, %56
  call void @llvm.lifetime.end.p0(i64 8, ptr %9) #4
  call void @llvm.lifetime.end.p0(i64 1, ptr %8) #4
  call void @llvm.lifetime.end.p0(i64 8, ptr %7) #4
  call void @llvm.lifetime.end.p0(i64 1, ptr %6) #4
  call void @llvm.lifetime.end.p0(i64 4, ptr %5) #4
  call void @llvm.lifetime.end.p0(i64 8, ptr %4) #4
  %119 = load ptr, ptr %2, align 8
  ret ptr %119
}