; Function Attrs: nounwind uwtable
define internal ptr @CteScanNext(ptr noundef readonly captures(none) %0) #0 {
  %2 = getelementptr inbounds nuw i8, ptr %0, i64 16
  %3 = load ptr, ptr %2, align 8
  %4 = getelementptr inbounds nuw i8, ptr %3, i64 4
  %5 = load i32, ptr %4, align 4
  %6 = icmp eq i32 %5, 1
  %7 = getelementptr inbounds nuw i8, ptr %0, i64 240
  %8 = load ptr, ptr %7, align 8
  %9 = getelementptr inbounds nuw i8, ptr %8, i64 248
  %10 = load ptr, ptr %9, align 8
  %11 = getelementptr inbounds nuw i8, ptr %0, i64 228
  %12 = load i32, ptr %11, align 4
  tail call void @tuplestore_select_read_pointer(ptr noundef %10, i32 noundef %12) #3
  %13 = getelementptr inbounds nuw i8, ptr %0, i64 216
  %14 = load ptr, ptr %13, align 8
  %15 = tail call zeroext i1 @tuplestore_ateof(ptr noundef %10) #3
  %.not36 = xor i1 %15, true
  %brmerge = select i1 %6, i1 true, i1 %.not36
  br i1 %brmerge, label %23, label %16

16:                                               ; preds = %1
  %17 = load ptr, ptr %7, align 8
  %18 = getelementptr inbounds nuw i8, ptr %17, i64 256
  %19 = load i8, ptr %18, align 8, !range !4, !noundef !5
  %20 = trunc nuw i8 %19 to i1
  br i1 %20, label %.thread, label %21

21:                                               ; preds = %16
  %22 = tail call zeroext i1 @tuplestore_advance(ptr noundef %10, i1 noundef zeroext false) #3
  br i1 %22, label %.thread, label %58

23:                                               ; preds = %1
  br i1 %15, label %.thread39, label %.thread

.thread:                                          ; preds = %16, %21, %23
  %24 = tail call zeroext i1 @tuplestore_gettupleslot(ptr noundef %10, i1 noundef zeroext %6, i1 noundef zeroext true, ptr noundef %14) #3
  br i1 %24, label %58, label %25

25:                                               ; preds = %.thread
  br i1 %6, label %.thread39, label %53

.thread39:                                        ; preds = %23, %25
  %26 = load ptr, ptr %7, align 8
  %27 = getelementptr inbounds nuw i8, ptr %26, i64 256
  %28 = load i8, ptr %27, align 8, !range !4, !noundef !5
  %29 = trunc nuw i8 %28 to i1
  br i1 %29, label %53, label %30

30:                                               ; preds = %.thread39
  %31 = getelementptr inbounds nuw i8, ptr %0, i64 232
  %32 = load ptr, ptr %31, align 8
  %33 = getelementptr inbounds nuw i8, ptr %32, i64 104
  %34 = load ptr, ptr %33, align 8
  %.not.i = icmp eq ptr %34, null
  br i1 %.not.i, label %ExecProcNode.exit, label %35

35:                                               ; preds = %30
  tail call void @ExecReScan(ptr noundef nonnull %32) #3
  br label %ExecProcNode.exit

ExecProcNode.exit:                                ; preds = %30, %35
  %36 = getelementptr inbounds nuw i8, ptr %32, i64 24
  %37 = load ptr, ptr %36, align 8
  %38 = tail call ptr %37(ptr noundef nonnull %32) #3
  %39 = icmp eq ptr %38, null
  br i1 %39, label %44, label %40

40:                                               ; preds = %ExecProcNode.exit
  %41 = getelementptr inbounds nuw i8, ptr %38, i64 4
  %42 = load i16, ptr %41, align 4
  %43 = and i16 %42, 2
  %.not = icmp eq i16 %43, 0
  br i1 %.not, label %47, label %44

44:                                               ; preds = %40, %ExecProcNode.exit
  %45 = load ptr, ptr %7, align 8
  %46 = getelementptr inbounds nuw i8, ptr %45, i64 256
  store i8 1, ptr %46, align 8
  br label %58

47:                                               ; preds = %40
  %48 = load i32, ptr %11, align 4
  tail call void @tuplestore_select_read_pointer(ptr noundef %10, i32 noundef %48) #3
  tail call void @tuplestore_puttupleslot(ptr noundef %10, ptr noundef nonnull %38) #3
  %49 = getelementptr inbounds nuw i8, ptr %14, i64 8
  %50 = load ptr, ptr %49, align 8
  %51 = getelementptr inbounds nuw i8, ptr %50, i64 64
  %52 = load ptr, ptr %51, align 8
  tail call void %52(ptr noundef %14, ptr noundef nonnull %38) #3
  br label %58

53:                                               ; preds = %.thread39, %25
  %54 = getelementptr inbounds nuw i8, ptr %14, i64 8
  %55 = load ptr, ptr %54, align 8
  %56 = getelementptr inbounds nuw i8, ptr %55, i64 24
  %57 = load ptr, ptr %56, align 8
  tail call void %57(ptr noundef %14) #3
  br label %58

58:                                               ; preds = %44, %47, %.thread, %21, %53
  %.0 = phi ptr [ %14, %53 ], [ null, %21 ], [ %14, %.thread ], [ null, %44 ], [ %14, %47 ]
  ret ptr %.0
}